target datalayout = "e-m:e-p270:32:32-p271:32:32-p272:64:64-i64:64-i128:128-f80:128-n8:16:32:64-S128"
target triple = "x86_64-pc-linux-gnu"

%struct.H5F_t = type { ptr, ptr, ptr, ptr, i32, ptr, i8, i8, ptr, i32 }
%struct.H5F_olist_t = type { i32, ptr, ptr, %struct.anon.8, i64, i64 }
%struct.anon.8 = type { i8, %union.anon.9 }
%union.anon.9 = type { ptr }
%struct.H5O_loc_t = type { ptr, i64, i8 }

@.str.2 = private unnamed_addr constant [100 x i8] c"generated/home/dtcxzyw/WorkSpace/Projects/compilers/llvm-opt-benchmark/bench/hdf5/hdf5/src/H5Fint.c\00", align 1
@H5E_ARGS_g = external global i64, align 8
@H5E_BADTYPE_g = external global i64, align 8
@.str.166 = private unnamed_addr constant [43 x i8] c"maps not supported in native VOL connector\00", align 1
@__func__.H5F__get_objects_cb = private unnamed_addr constant [20 x i8] c"H5F__get_objects_cb\00", align 1
@.str.188 = private unnamed_addr constant [31 x i8] c"unknown or invalid data object\00", align 1

; Function Attrs: nounwind uwtable
define internal i32 @H5F__get_objects_cb(ptr noundef %0, i64 noundef %1, ptr noundef %2) #0 {
  %4 = alloca ptr, align 8
  %5 = alloca i64, align 8
  %6 = alloca ptr, align 8
  %7 = alloca ptr, align 8
  %8 = alloca i8, align 1
  %9 = alloca i32, align 4
  %10 = alloca i8, align 1
  %11 = alloca ptr, align 8
  store ptr %0, ptr %4, align 8
  store i64 %1, ptr %5, align 8
  store ptr %2, ptr %6, align 8
  %12 = load ptr, ptr %6, align 8
  store ptr %12, ptr %7, align 8
  store i8 0, ptr %8, align 1
  store i32 0, ptr %9, align 4
  store i8 0, ptr %10, align 1
  %13 = load ptr, ptr %7, align 8
  %14 = getelementptr inbounds %struct.H5F_olist_t, ptr %13, i32 0, i32 0
  %15 = load i32, ptr %14, align 8
  %16 = icmp eq i32 %15, 1
  br i1 %16, label %17, label %71

17:                                               ; preds = %3
  %18 = load ptr, ptr %7, align 8
  %19 = getelementptr inbounds %struct.H5F_olist_t, ptr %18, i32 0, i32 3
  %20 = getelementptr inbounds %struct.anon.8, ptr %19, i32 0, i32 0
  %21 = load i8, ptr %20, align 8
  %22 = trunc i8 %21 to i1
  br i1 %22, label %23, label %42

23:                                               ; preds = %17
  %24 = load ptr, ptr %7, align 8
  %25 = getelementptr inbounds %struct.H5F_olist_t, ptr %24, i32 0, i32 3
  %26 = getelementptr inbounds %struct.anon.8, ptr %25, i32 0, i32 1
  %27 = load ptr, ptr %26, align 8
  %28 = icmp ne ptr %27, null
  br i1 %28, label %29, label %69

29:                                               ; preds = %23
  %30 = load ptr, ptr %7, align 8
  %31 = getelementptr inbounds %struct.H5F_olist_t, ptr %30, i32 0, i32 3
  %32 = getelementptr inbounds %struct.anon.8, ptr %31, i32 0, i32 1
  %33 = load ptr, ptr %32, align 8
  %34 = icmp ne ptr %33, null
  br i1 %34, label %35, label %42

35:                                               ; preds = %29
  %36 = load ptr, ptr %4, align 8
  %37 = load ptr, ptr %7, align 8
  %38 = getelementptr inbounds %struct.H5F_olist_t, ptr %37, i32 0, i32 3
  %39 = getelementptr inbounds %struct.anon.8, ptr %38, i32 0, i32 1
  %40 = load ptr, ptr %39, align 8
  %41 = icmp eq ptr %36, %40
  br i1 %41, label %69, label %42

42:                                               ; preds = %35, %29, %17
  %43 = load ptr, ptr %7, align 8
  %44 = getelementptr inbounds %struct.H5F_olist_t, ptr %43, i32 0, i32 3
  %45 = getelementptr inbounds %struct.anon.8, ptr %44, i32 0, i32 0
  %46 = load i8, ptr %45, align 8
  %47 = trunc i8 %46 to i1
  br i1 %47, label %70, label %48

48:                                               ; preds = %42
  %49 = load ptr, ptr %7, align 8
  %50 = getelementptr inbounds %struct.H5F_olist_t, ptr %49, i32 0, i32 3
  %51 = getelementptr inbounds %struct.anon.8, ptr %50, i32 0, i32 1
  %52 = load ptr, ptr %51, align 8
  %53 = icmp ne ptr %52, null
  br i1 %53, label %54, label %69

54:                                               ; preds = %48
  %55 = load ptr, ptr %7, align 8
  %56 = getelementptr inbounds %struct.H5F_olist_t, ptr %55, i32 0, i32 3
  %57 = getelementptr inbounds %struct.anon.8, ptr %56, i32 0, i32 1
  %58 = load ptr, ptr %57, align 8
  %59 = icmp ne ptr %58, null
  br i1 %59, label %60, label %70

60:                                               ; preds = %54
  %61 = load ptr, ptr %4, align 8
  %62 = getelementptr inbounds %struct.H5F_t, ptr %61, i32 0, i32 2
  %63 = load ptr, ptr %62, align 8
  %64 = load ptr, ptr %7, align 8
  %65 = getelementptr inbounds %struct.H5F_olist_t, ptr %64, i32 0, i32 3
  %66 = getelementptr inbounds %struct.anon.8, ptr %65, i32 0, i32 1
  %67 = load ptr, ptr %66, align 8
  %68 = icmp eq ptr %63, %67
  br i1 %68, label %69, label %70

69:                                               ; preds = %60, %48, %35, %23
  store i8 1, ptr %8, align 1
  br label %70

70:                                               ; preds = %69, %60, %54, %42
  br label %221

71:                                               ; preds = %3
  %72 = load ptr, ptr %7, align 8
  %73 = getelementptr inbounds %struct.H5F_olist_t, ptr %72, i32 0, i32 0
  %74 = load i32, ptr %73, align 8
  switch i32 %74, label %109 [
    i32 7, label %75
    i32 2, label %78
    i32 5, label %81
    i32 3, label %84
    i32 6, label %93
    i32 -2, label %108
    i32 -1, label %108
    i32 1, label %108
    i32 4, label %108
    i32 8, label %108
    i32 9, label %108
    i32 10, label %108
    i32 11, label %108
    i32 12, label %108
    i32 13, label %108
    i32 14, label %108
    i32 15, label %108
    i32 16, label %108
    i32 17, label %108
  ]

75:                                               ; preds = %71
  %76 = load ptr, ptr %4, align 8
  %77 = call ptr @H5A_oloc(ptr noundef %76)
  store ptr %77, ptr %11, align 8
  br label %124

78:                                               ; preds = %71
  %79 = load ptr, ptr %4, align 8
  %80 = call ptr @H5G_oloc(ptr noundef %79)
  store ptr %80, ptr %11, align 8
  br label %124

81:                                               ; preds = %71
  %82 = load ptr, ptr %4, align 8
  %83 = call ptr @H5D_oloc(ptr noundef %82)
  store ptr %83, ptr %11, align 8
  br label %124

84:                                               ; preds = %71
  %85 = load ptr, ptr %4, align 8
  %86 = call i32 @H5T_is_named(ptr noundef %85)
  %87 = icmp eq i32 %86, 1
  br i1 %87, label %88, label %91

88:                                               ; preds = %84
  %89 = load ptr, ptr %4, align 8
  %90 = call ptr @H5T_oloc(ptr noundef %89)
  store ptr %90, ptr %11, align 8
  br label %92

91:                                               ; preds = %84
  store ptr null, ptr %11, align 8
  br label %92

92:                                               ; preds = %91, %88
  br label %124

93:                                               ; preds = %71
  br label %94

94:                                               ; preds = %93
  br label %95

95:                                               ; preds = %94
  br label %96

96:                                               ; preds = %95
  %97 = load i64, ptr @H5E_ARGS_g, align 8
  %98 = load i64, ptr @H5E_BADTYPE_g, align 8
  %99 = call i32 (ptr, ptr, i32, i64, i64, ptr, ...) @H5E_printf_stack(ptr noundef @.str.2, ptr noundef @__func__.H5F__get_objects_cb, i32 noundef 691, i64 noundef %97, i64 noundef %98, ptr noundef @.str.166)
  br label %100

100:                                              ; preds = %96
  store i8 1, ptr %10, align 1
  %101 = load i8, ptr %10, align 1
  %102 = trunc i8 %101 to i1
  %103 = zext i1 %102 to i8
  store i8 %103, ptr %10, align 1
  br label %104

104:                                              ; preds = %100
  br label %105

105:                                              ; preds = %104
  store i32 -1, ptr %9, align 4
  br label %271

106:                                              ; No predecessors!
  br label %107

107:                                              ; preds = %106
  br label %108

108:                                              ; preds = %107, %71, %71, %71, %71, %71, %71, %71, %71, %71, %71, %71, %71, %71, %71
  br label %109

109:                                              ; preds = %108, %71
  br label %110

110:                                              ; preds = %109
  br label %111

111:                                              ; preds = %110
  br label %112

112:                                              ; preds = %111
  %113 = load i64, ptr @H5E_ARGS_g, align 8
  %114 = load i64, ptr @H5E_BADTYPE_g, align 8
  %115 = call i32 (ptr, ptr, i32, i64, i64, ptr, ...) @H5E_printf_stack(ptr noundef @.str.2, ptr noundef @__func__.H5F__get_objects_cb, i32 noundef 708, i64 noundef %113, i64 noundef %114, ptr noundef @.str.188)
  br label %116

116:                                              ; preds = %112
  store i8 1, ptr %10, align 1
  %117 = load i8, ptr %10, align 1
  %118 = trunc i8 %117 to i1
  %119 = zext i1 %118 to i8
  store i8 %119, ptr %10, align 1
  br label %120

120:                                              ; preds = %116
  br label %121

121:                                              ; preds = %120
  store i32 -1, ptr %9, align 4
  br label %271

122:                                              ; No predecessors!
  br label %123

123:                                              ; preds = %122
  br label %124

124:                                              ; preds = %123, %92, %81, %78, %75
  %125 = load ptr, ptr %7, align 8
  %126 = getelementptr inbounds %struct.H5F_olist_t, ptr %125, i32 0, i32 3
  %127 = getelementptr inbounds %struct.anon.8, ptr %126, i32 0, i32 0
  %128 = load i8, ptr %127, align 8
  %129 = trunc i8 %128 to i1
  br i1 %129, label %130, label %168

130:                                              ; preds = %124
  %131 = load ptr, ptr %7, align 8
  %132 = getelementptr inbounds %struct.H5F_olist_t, ptr %131, i32 0, i32 3
  %133 = getelementptr inbounds %struct.anon.8, ptr %132, i32 0, i32 1
  %134 = load ptr, ptr %133, align 8
  %135 = icmp ne ptr %134, null
  br i1 %135, label %145, label %136

136:                                              ; preds = %130
  %137 = load ptr, ptr %7, align 8
  %138 = getelementptr inbounds %struct.H5F_olist_t, ptr %137, i32 0, i32 0
  %139 = load i32, ptr %138, align 8
  %140 = icmp eq i32 %139, 3
  br i1 %140, label %141, label %145

141:                                              ; preds = %136
  %142 = load ptr, ptr %4, align 8
  %143 = call i32 @H5T_is_immutable(ptr noundef %142)
  %144 = icmp eq i32 %143, 0
  br i1 %144, label %219, label %145

145:                                              ; preds = %141, %136, %130
  %146 = load ptr, ptr %7, align 8
  %147 = getelementptr inbounds %struct.H5F_olist_t, ptr %146, i32 0, i32 3
  %148 = getelementptr inbounds %struct.anon.8, ptr %147, i32 0, i32 1
  %149 = load ptr, ptr %148, align 8
  %150 = icmp ne ptr %149, null
  br i1 %150, label %156, label %151

151:                                              ; preds = %145
  %152 = load ptr, ptr %7, align 8
  %153 = getelementptr inbounds %struct.H5F_olist_t, ptr %152, i32 0, i32 0
  %154 = load i32, ptr %153, align 8
  %155 = icmp ne i32 %154, 3
  br i1 %155, label %219, label %156

156:                                              ; preds = %151, %145
  %157 = load ptr, ptr %11, align 8
  %158 = icmp ne ptr %157, null
  br i1 %158, label %159, label %168

159:                                              ; preds = %156
  %160 = load ptr, ptr %11, align 8
  %161 = getelementptr inbounds %struct.H5O_loc_t, ptr %160, i32 0, i32 0
  %162 = load ptr, ptr %161, align 8
  %163 = load ptr, ptr %7, align 8
  %164 = getelementptr inbounds %struct.H5F_olist_t, ptr %163, i32 0, i32 3
  %165 = getelementptr inbounds %struct.anon.8, ptr %164, i32 0, i32 1
  %166 = load ptr, ptr %165, align 8
  %167 = icmp eq ptr %162, %166
  br i1 %167, label %219, label %168

168:                                              ; preds = %159, %156, %124
  %169 = load ptr, ptr %7, align 8
  %170 = getelementptr inbounds %struct.H5F_olist_t, ptr %169, i32 0, i32 3
  %171 = getelementptr inbounds %struct.anon.8, ptr %170, i32 0, i32 0
  %172 = load i8, ptr %171, align 8
  %173 = trunc i8 %172 to i1
  br i1 %173, label %220, label %174

174:                                              ; preds = %168
  %175 = load ptr, ptr %7, align 8
  %176 = getelementptr inbounds %struct.H5F_olist_t, ptr %175, i32 0, i32 3
  %177 = getelementptr inbounds %struct.anon.8, ptr %176, i32 0, i32 1
  %178 = load ptr, ptr %177, align 8
  %179 = icmp ne ptr %178, null
  br i1 %179, label %189, label %180

180:                                              ; preds = %174
  %181 = load ptr, ptr %7, align 8
  %182 = getelementptr inbounds %struct.H5F_olist_t, ptr %181, i32 0, i32 0
  %183 = load i32, ptr %182, align 8
  %184 = icmp eq i32 %183, 3
  br i1 %184, label %185, label %189

185:                                              ; preds = %180
  %186 = load ptr, ptr %4, align 8
  %187 = call i32 @H5T_is_immutable(ptr noundef %186)
  %188 = icmp eq i32 %187, 0
  br i1 %188, label %219, label %189

189:                                              ; preds = %185, %180, %174
  %190 = load ptr, ptr %7, align 8
  %191 = getelementptr inbounds %struct.H5F_olist_t, ptr %190, i32 0, i32 3
  %192 = getelementptr inbounds %struct.anon.8, ptr %191, i32 0, i32 1
  %193 = load ptr, ptr %192, align 8
  %194 = icmp ne ptr %193, null
  br i1 %194, label %200, label %195

195:                                              ; preds = %189
  %196 = load ptr, ptr %7, align 8
  %197 = getelementptr inbounds %struct.H5F_olist_t, ptr %196, i32 0, i32 0
  %198 = load i32, ptr %197, align 8
  %199 = icmp ne i32 %198, 3
  br i1 %199, label %219, label %200

200:                                              ; preds = %195, %189
  %201 = load ptr, ptr %11, align 8
  %202 = icmp ne ptr %201, null
  br i1 %202, label %203, label %220

203:                                              ; preds = %200
  %204 = load ptr, ptr %11, align 8
  %205 = getelementptr inbounds %struct.H5O_loc_t, ptr %204, i32 0, i32 0
  %206 = load ptr, ptr %205, align 8
  %207 = icmp ne ptr %206, null
  br i1 %207, label %208, label %220

208:                                              ; preds = %203
  %209 = load ptr, ptr %11, align 8
  %210 = getelementptr inbounds %struct.H5O_loc_t, ptr %209, i32 0, i32 0
  %211 = load ptr, ptr %210, align 8
  %212 = getelementptr inbounds %struct.H5F_t, ptr %211, i32 0, i32 2
  %213 = load ptr, ptr %212, align 8
  %214 = load ptr, ptr %7, align 8
  %215 = getelementptr inbounds %struct.H5F_olist_t, ptr %214, i32 0, i32 3
  %216 = getelementptr inbounds %struct.anon.8, ptr %215, i32 0, i32 1
  %217 = load ptr, ptr %216, align 8
  %218 = icmp eq ptr %213, %217
  br i1 %218, label %219, label %220

219:                                              ; preds = %208, %195, %185, %159, %151, %141
  store i8 1, ptr %8, align 1
  br label %220

220:                                              ; preds = %219, %208, %203, %200, %168
  br label %221

221:                                              ; preds = %220, %70
  %222 = load i8, ptr %8, align 1
  %223 = trunc i8 %222 to i1
  br i1 %223, label %224, label %270

224:                                              ; preds = %221
  %225 = load ptr, ptr %7, align 8
  %226 = getelementptr inbounds %struct.H5F_olist_t, ptr %225, i32 0, i32 1
  %227 = load ptr, ptr %226, align 8
  %228 = icmp ne ptr %227, null
  br i1 %228, label %229, label %242

229:                                              ; preds = %224
  %230 = load i64, ptr %5, align 8
  %231 = load ptr, ptr %7, align 8
  %232 = getelementptr inbounds %struct.H5F_olist_t, ptr %231, i32 0, i32 1
  %233 = load ptr, ptr %232, align 8
  %234 = load ptr, ptr %7, align 8
  %235 = getelementptr inbounds %struct.H5F_olist_t, ptr %234, i32 0, i32 4
  %236 = load i64, ptr %235, align 8
  %237 = getelementptr inbounds i64, ptr %233, i64 %236
  store i64 %230, ptr %237, align 8
  %238 = load ptr, ptr %7, align 8
  %239 = getelementptr inbounds %struct.H5F_olist_t, ptr %238, i32 0, i32 4
  %240 = load i64, ptr %239, align 8
  %241 = add i64 %240, 1
  store i64 %241, ptr %239, align 8
  br label %242

242:                                              ; preds = %229, %224
  %243 = load ptr, ptr %7, align 8
  %244 = getelementptr inbounds %struct.H5F_olist_t, ptr %243, i32 0, i32 2
  %245 = load ptr, ptr %244, align 8
  %246 = icmp ne ptr %245, null
  br i1 %246, label %247, label %253

247:                                              ; preds = %242
  %248 = load ptr, ptr %7, align 8
  %249 = getelementptr inbounds %struct.H5F_olist_t, ptr %248, i32 0, i32 2
  %250 = load ptr, ptr %249, align 8
  %251 = load i64, ptr %250, align 8
  %252 = add i64 %251, 1
  store i64 %252, ptr %250, align 8
  br label %253

253:                                              ; preds = %247, %242
  %254 = load ptr, ptr %7, align 8
  %255 = getelementptr inbounds %struct.H5F_olist_t, ptr %254, i32 0, i32 5
  %256 = load i64, ptr %255, align 8
  %257 = icmp ugt i64 %256, 0
  br i1 %257, label %258, label %269

258:                                              ; preds = %253
  %259 = load ptr, ptr %7, align 8
  %260 = getelementptr inbounds %struct.H5F_olist_t, ptr %259, i32 0, i32 4
  %261 = load i64, ptr %260, align 8
  %262 = load ptr, ptr %7, align 8
  %263 = getelementptr inbounds %struct.H5F_olist_t, ptr %262, i32 0, i32 5
  %264 = load i64, ptr %263, align 8
  %265 = icmp uge i64 %261, %264
  br i1 %265, label %266, label %269

266:                                              ; preds = %258
  br label %267

267:                                              ; preds = %266
  store i32 1, ptr %9, align 4
  br label %271

268:                                              ; No predecessors!
  br label %269

269:                                              ; preds = %268, %258, %253
  br label %270

270:                                              ; preds = %269, %221
  br label %271

271:                                              ; preds = %270, %267, %121, %105
  %272 = load i32, ptr %9, align 4
  ret i32 %272
}