; Function Attrs: nounwind uwtable
define internal range(i32 -1, 2) i32 @H5F__get_objects_cb(ptr noundef %0, i64 noundef %1, ptr nocapture noundef %2) #0 {
  %4 = load i32, ptr %2, align 8
  switch i32 %4, label %33 [
    i32 1, label %5
    i32 7, label %18
    i32 2, label %20
    i32 5, label %22
    i32 3, label %24
    i32 6, label %29
  ]

5:                                                ; preds = %3
  %6 = getelementptr inbounds i8, ptr %2, i64 24
  %7 = load i8, ptr %6, align 8
  %8 = trunc i8 %7 to i1
  %9 = getelementptr inbounds i8, ptr %2, i64 32
  %10 = load ptr, ptr %9, align 8
  %.not67 = icmp eq ptr %10, null
  br i1 %8, label %11, label %13

11:                                               ; preds = %5
  %12 = icmp eq ptr %10, %0
  %or.cond = or i1 %.not67, %12
  br i1 %or.cond, label %.critedge, label %.thread

13:                                               ; preds = %5
  br i1 %.not67, label %.critedge, label %14

14:                                               ; preds = %13
  %15 = getelementptr inbounds i8, ptr %0, i64 16
  %16 = load ptr, ptr %15, align 8
  %17 = icmp eq ptr %16, %10
  br i1 %17, label %.critedge, label %.thread

18:                                               ; preds = %3
  %19 = tail call ptr @H5A_oloc(ptr noundef %0) #22
  br label %37

20:                                               ; preds = %3
  %21 = tail call ptr @H5G_oloc(ptr noundef %0) #22
  br label %37

22:                                               ; preds = %3
  %23 = tail call ptr @H5D_oloc(ptr noundef %0) #22
  br label %37

24:                                               ; preds = %3
  %25 = tail call i32 @H5T_is_named(ptr noundef %0) #22
  %26 = icmp eq i32 %25, 1
  br i1 %26, label %27, label %37

27:                                               ; preds = %24
  %28 = tail call ptr @H5T_oloc(ptr noundef %0) #22
  br label %37

29:                                               ; preds = %3
  %30 = load i64, ptr @H5E_ARGS_g, align 8
  %31 = load i64, ptr @H5E_BADTYPE_g, align 8
  %32 = tail call i32 (ptr, ptr, i32, i64, i64, ptr, ...) @H5E_printf_stack(ptr noundef nonnull @.str.2, ptr noundef nonnull @__func__.H5F__get_objects_cb, i32 noundef 691, i64 noundef %30, i64 noundef %31, ptr noundef nonnull @.str.166) #22
  br label %.thread

33:                                               ; preds = %3
  %34 = load i64, ptr @H5E_ARGS_g, align 8
  %35 = load i64, ptr @H5E_BADTYPE_g, align 8
  %36 = tail call i32 (ptr, ptr, i32, i64, i64, ptr, ...) @H5E_printf_stack(ptr noundef nonnull @.str.2, ptr noundef nonnull @__func__.H5F__get_objects_cb, i32 noundef 708, i64 noundef %34, i64 noundef %35, ptr noundef nonnull @.str.188) #22
  br label %.thread

37:                                               ; preds = %24, %27, %22, %20, %18
  %.0 = phi ptr [ %28, %27 ], [ %23, %22 ], [ %21, %20 ], [ %19, %18 ], [ null, %24 ]
  %38 = getelementptr inbounds i8, ptr %2, i64 24
  %39 = load i8, ptr %38, align 8
  %40 = trunc i8 %39 to i1
  br i1 %40, label %41, label %56

41:                                               ; preds = %37
  %42 = getelementptr inbounds i8, ptr %2, i64 32
  %43 = load ptr, ptr %42, align 8
  %.not = icmp eq ptr %43, null
  br i1 %.not, label %44, label %.thread75

44:                                               ; preds = %41
  %45 = load i32, ptr %2, align 8
  %46 = icmp eq i32 %45, 3
  br i1 %46, label %47, label %.critedge

47:                                               ; preds = %44
  %48 = tail call i32 @H5T_is_immutable(ptr noundef %0) #22
  %49 = icmp eq i32 %48, 0
  br i1 %49, label %.critedge, label %50

50:                                               ; preds = %47
  %.pr = load ptr, ptr %42, align 8
  %.not59 = icmp eq ptr %.pr, null
  br i1 %.not59, label %51, label %.thread75

51:                                               ; preds = %50
  %.pr78 = load i32, ptr %2, align 8
  %.not60 = icmp eq i32 %.pr78, 3
  br i1 %.not60, label %.thread75, label %.critedge

.thread75:                                        ; preds = %41, %51, %50
  %52 = phi ptr [ null, %51 ], [ %.pr, %50 ], [ %43, %41 ]
  %.not61 = icmp eq ptr %.0, null
  br i1 %.not61, label %56, label %53

53:                                               ; preds = %.thread75
  %54 = load ptr, ptr %.0, align 8
  %55 = icmp eq ptr %54, %52
  br i1 %55, label %.critedge, label %56

56:                                               ; preds = %53, %.thread75, %37
  %57 = load i8, ptr %38, align 8
  %58 = trunc i8 %57 to i1
  br i1 %58, label %.thread, label %59

59:                                               ; preds = %56
  %60 = getelementptr inbounds i8, ptr %2, i64 32
  %61 = load ptr, ptr %60, align 8
  %.not62 = icmp eq ptr %61, null
  br i1 %.not62, label %62, label %.thread85

62:                                               ; preds = %59
  %63 = load i32, ptr %2, align 8
  %64 = icmp eq i32 %63, 3
  br i1 %64, label %65, label %.critedge

65:                                               ; preds = %62
  %66 = tail call i32 @H5T_is_immutable(ptr noundef %0) #22
  %67 = icmp eq i32 %66, 0
  br i1 %67, label %.critedge, label %68

68:                                               ; preds = %65
  %.pr82 = load ptr, ptr %60, align 8
  %.not63 = icmp eq ptr %.pr82, null
  br i1 %.not63, label %69, label %.thread85

69:                                               ; preds = %68
  %.pr88 = load i32, ptr %2, align 8
  %.not64 = icmp eq i32 %.pr88, 3
  br i1 %.not64, label %.thread85, label %.critedge

.thread85:                                        ; preds = %59, %69, %68
  %70 = phi ptr [ null, %69 ], [ %.pr82, %68 ], [ %61, %59 ]
  %.not65 = icmp eq ptr %.0, null
  br i1 %.not65, label %.thread, label %71

71:                                               ; preds = %.thread85
  %72 = load ptr, ptr %.0, align 8
  %.not66 = icmp eq ptr %72, null
  br i1 %.not66, label %.thread, label %73

73:                                               ; preds = %71
  %74 = getelementptr inbounds i8, ptr %72, i64 16
  %75 = load ptr, ptr %74, align 8
  %76 = icmp eq ptr %75, %70
  br i1 %76, label %.critedge, label %.thread

.critedge:                                        ; preds = %62, %44, %47, %51, %53, %65, %69, %73, %11, %13, %14
  %77 = getelementptr inbounds i8, ptr %2, i64 8
  %78 = load ptr, ptr %77, align 8
  %.not69 = icmp eq ptr %78, null
  br i1 %.not69, label %85, label %79

79:                                               ; preds = %.critedge
  %80 = getelementptr inbounds i8, ptr %2, i64 40
  %81 = load i64, ptr %80, align 8
  %82 = getelementptr inbounds i64, ptr %78, i64 %81
  store i64 %1, ptr %82, align 8
  %83 = load i64, ptr %80, align 8
  %84 = add i64 %83, 1
  store i64 %84, ptr %80, align 8
  br label %85

85:                                               ; preds = %79, %.critedge
  %86 = getelementptr inbounds i8, ptr %2, i64 16
  %87 = load ptr, ptr %86, align 8
  %.not70 = icmp eq ptr %87, null
  br i1 %.not70, label %91, label %88

88:                                               ; preds = %85
  %89 = load i64, ptr %87, align 8
  %90 = add i64 %89, 1
  store i64 %90, ptr %87, align 8
  br label %91

91:                                               ; preds = %88, %85
  %92 = getelementptr inbounds i8, ptr %2, i64 48
  %93 = load i64, ptr %92, align 8
  %.not71 = icmp eq i64 %93, 0
  br i1 %.not71, label %.thread, label %94

94:                                               ; preds = %91
  %95 = getelementptr inbounds i8, ptr %2, i64 40
  %96 = load i64, ptr %95, align 8
  %.not72 = icmp uge i64 %96, %93
  %spec.select = zext i1 %.not72 to i32
  br label %.thread

.thread:                                          ; preds = %11, %94, %14, %73, %71, %.thread85, %56, %91, %33, %29
  %.050 = phi i32 [ 0, %91 ], [ -1, %33 ], [ -1, %29 ], [ 0, %56 ], [ 0, %.thread85 ], [ 0, %71 ], [ 0, %73 ], [ 0, %14 ], [ %spec.select, %94 ], [ 0, %11 ]
  ret i32 %.050
}